ccopy_reg
_reconstructor
p0
(csklearn.linear_model.base
LinearRegression
p1
c__builtin__
object
p2
Ntp3
Rp4
(dp5
S'normalize'
p6
I00
sS'copy_X'
p7
I01
sS'n_jobs'
p8
NsS'_sklearn_version'
p9
S'0.20.3'
p10
sS'fit_intercept'
p11
I01
sb.